target datalayout = "e-m:e-p270:32:32-p271:32:32-p272:64:64-i64:64-i128:128-f80:128-n8:16:32:64-S128"
target triple = "x86_64-pc-linux-gnu"

; Function Attrs: alwaysinline nounwind willreturn memory(none) uwtable
define internal zeroext i16 @av_bswap16(i16 noundef zeroext %0) #3 {
  %2 = alloca i16, align 2
  store i16 %0, ptr %2, align 2, !tbaa !22
  %3 = load i16, ptr %2, align 2, !tbaa !22
  %4 = zext i16 %3 to i32
  %5 = ashr i32 %4, 8
  %6 = load i16, ptr %2, align 2, !tbaa !22
  %7 = zext i16 %6 to i32
  %8 = shl i32 %7, 8
  %9 = or i32 %5, %8
  %10 = trunc i32 %9 to i16
  store i16 %10, ptr %2, align 2, !tbaa !22
  %11 = load i16, ptr %2, align 2, !tbaa !22
  ret i16 %11
}

; Function Attrs: nounwind uwtable
define void @rgb64to48_bswap(ptr noundef %0, ptr noundef %1, i32 noundef %2) #0 {
  %4 = alloca ptr, align 8
  %5 = alloca ptr, align 8
  %6 = alloca i32, align 4
  %7 = alloca ptr, align 8
  %8 = alloca ptr, align 8
  %9 = alloca i32, align 4
  %10 = alloca i32, align 4
  store ptr %0, ptr %4, align 8, !tbaa !4
  store ptr %1, ptr %5, align 8, !tbaa !4
  store i32 %2, ptr %6, align 4, !tbaa !9
  call void @llvm.lifetime.start.p0(i64 8, ptr %7) #5
  %11 = load ptr, ptr %5, align 8, !tbaa !4
  store ptr %11, ptr %7, align 8, !tbaa !20
  call void @llvm.lifetime.start.p0(i64 8, ptr %8) #5
  %12 = load ptr, ptr %4, align 8, !tbaa !4
  store ptr %12, ptr %8, align 8, !tbaa !20
  call void @llvm.lifetime.start.p0(i64 4, ptr %9) #5
  call void @llvm.lifetime.start.p0(i64 4, ptr %10) #5
  %13 = load i32, ptr %6, align 4, !tbaa !9
  %14 = ashr i32 %13, 3
  store i32 %14, ptr %10, align 4, !tbaa !9
  store i32 0, ptr %9, align 4, !tbaa !9
  br label %15

15:                                               ; preds = %66, %3
  %16 = load i32, ptr %9, align 4, !tbaa !9
  %17 = load i32, ptr %10, align 4, !tbaa !9
  %18 = icmp slt i32 %16, %17
  br i1 %18, label %19, label %69

19:                                               ; preds = %15
  %20 = load ptr, ptr %8, align 8, !tbaa !20
  %21 = load i32, ptr %9, align 4, !tbaa !9
  %22 = mul nsw i32 4, %21
  %23 = sext i32 %22 to i64
  %24 = getelementptr inbounds i16, ptr %20, i64 %23
  %25 = load i16, ptr %24, align 2, !tbaa !22
  %26 = call zeroext i16 @av_bswap16(i16 noundef zeroext %25) #7
  %27 = zext i16 %26 to i32
  %28 = trunc i32 %27 to i16
  %29 = load ptr, ptr %7, align 8, !tbaa !20
  %30 = load i32, ptr %9, align 4, !tbaa !9
  %31 = mul nsw i32 3, %30
  %32 = sext i32 %31 to i64
  %33 = getelementptr inbounds i16, ptr %29, i64 %32
  store i16 %28, ptr %33, align 2, !tbaa !22
  %34 = load ptr, ptr %8, align 8, !tbaa !20
  %35 = load i32, ptr %9, align 4, !tbaa !9
  %36 = mul nsw i32 4, %35
  %37 = add nsw i32 %36, 1
  %38 = sext i32 %37 to i64
  %39 = getelementptr inbounds i16, ptr %34, i64 %38
  %40 = load i16, ptr %39, align 2, !tbaa !22
  %41 = call zeroext i16 @av_bswap16(i16 noundef zeroext %40) #7
  %42 = zext i16 %41 to i32
  %43 = trunc i32 %42 to i16
  %44 = load ptr, ptr %7, align 8, !tbaa !20
  %45 = load i32, ptr %9, align 4, !tbaa !9
  %46 = mul nsw i32 3, %45
  %47 = add nsw i32 %46, 1
  %48 = sext i32 %47 to i64
  %49 = getelementptr inbounds i16, ptr %44, i64 %48
  store i16 %43, ptr %49, align 2, !tbaa !22
  %50 = load ptr, ptr %8, align 8, !tbaa !20
  %51 = load i32, ptr %9, align 4, !tbaa !9
  %52 = mul nsw i32 4, %51
  %53 = add nsw i32 %52, 2
  %54 = sext i32 %53 to i64
  %55 = getelementptr inbounds i16, ptr %50, i64 %54
  %56 = load i16, ptr %55, align 2, !tbaa !22
  %57 = call zeroext i16 @av_bswap16(i16 noundef zeroext %56) #7
  %58 = zext i16 %57 to i32
  %59 = trunc i32 %58 to i16
  %60 = load ptr, ptr %7, align 8, !tbaa !20
  %61 = load i32, ptr %9, align 4, !tbaa !9
  %62 = mul nsw i32 3, %61
  %63 = add nsw i32 %62, 2
  %64 = sext i32 %63 to i64
  %65 = getelementptr inbounds i16, ptr %60, i64 %64
  store i16 %59, ptr %65, align 2, !tbaa !22
  br label %66

66:                                               ; preds = %19
  %67 = load i32, ptr %9, align 4, !tbaa !9
  %68 = add nsw i32 %67, 1
  store i32 %68, ptr %9, align 4, !tbaa !9
  br label %15, !llvm.loop !39

69:                                               ; preds = %15
  call void @llvm.lifetime.end.p0(i64 4, ptr %10) #5
  call void @llvm.lifetime.end.p0(i64 4, ptr %9) #5
  call void @llvm.lifetime.end.p0(i64 8, ptr %8) #5
  call void @llvm.lifetime.end.p0(i64 8, ptr %7) #5
  ret void
}